target datalayout = "e-m:e-p270:32:32-p271:32:32-p272:64:64-i64:64-i128:128-f80:128-n8:16:32:64-S128"
target triple = "x86_64-pc-linux-gnu"

; Function Attrs: inlinehint mustprogress uwtable
define linkonce_odr void @_ZN6icu_778Calendar7setTimeEdR10UErrorCode(ptr noundef nonnull align 8 dereferenceable(192) %0, double noundef %1, ptr noundef nonnull align 4 dereferenceable(4) %2) #6 comdat align 2 {
  %4 = alloca ptr, align 8
  %5 = alloca double, align 8
  %6 = alloca ptr, align 8
  store ptr %0, ptr %4, align 8, !tbaa !32
  store double %1, ptr %5, align 8, !tbaa !34
  store ptr %2, ptr %6, align 8, !tbaa !8
  %7 = load ptr, ptr %4, align 8
  %8 = load double, ptr %5, align 8, !tbaa !34
  %9 = load ptr, ptr %6, align 8, !tbaa !8
  call void @_ZN6icu_778Calendar15setTimeInMillisEdR10UErrorCode(ptr noundef nonnull align 8 dereferenceable(192) %7, double noundef %8, ptr noundef nonnull align 4 dereferenceable(4) %9)
  ret void
}

; Function Attrs: inlinehint mustprogress uwtable
define linkonce_odr noundef double @_ZNK6icu_778Calendar7getTimeER10UErrorCode(ptr noundef nonnull align 8 dereferenceable(192) %0, ptr noundef nonnull align 4 dereferenceable(4) %1) #6 comdat align 2 {
  %3 = alloca ptr, align 8
  %4 = alloca ptr, align 8
  store ptr %0, ptr %3, align 8, !tbaa !32
  store ptr %1, ptr %4, align 8, !tbaa !8
  %5 = load ptr, ptr %3, align 8
  %6 = load ptr, ptr %4, align 8, !tbaa !8
  %7 = call noundef double @_ZNK6icu_778Calendar15getTimeInMillisER10UErrorCode(ptr noundef nonnull align 8 dereferenceable(192) %5, ptr noundef nonnull align 4 dereferenceable(4) %6)
  ret double %7
}

; Function Attrs: inlinehint mustprogress nounwind uwtable
define internal noundef signext i8 @_ZL9U_FAILURE10UErrorCode(i32 noundef %0) #4 {
  %2 = alloca i32, align 4
  store i32 %0, ptr %2, align 4, !tbaa !35
  %3 = load i32, ptr %2, align 4, !tbaa !35
  %4 = icmp sgt i32 %3, 0
  %5 = zext i1 %4 to i8
  ret i8 %5
}

; Function Attrs: mustprogress uwtable
define noundef i32 @_ZNK6icu_7717GregorianCalendar16getActualMaximumE19UCalendarDateFieldsR10UErrorCode(ptr noundef nonnull align 8 dereferenceable(222) %0, i32 noundef %1, ptr noundef nonnull align 4 dereferenceable(4) %2) unnamed_addr #1 align 2 {
  %4 = alloca i32, align 4
  %5 = alloca ptr, align 8
  %6 = alloca i32, align 4
  %7 = alloca ptr, align 8
  %8 = alloca ptr, align 8
  %9 = alloca i32, align 4
  %10 = alloca i32, align 4
  %11 = alloca double, align 8
  %12 = alloca i32, align 4
  %13 = alloca i32, align 4
  %14 = alloca i32, align 4
  store ptr %0, ptr %5, align 8, !tbaa !3
  store i32 %1, ptr %6, align 4, !tbaa !45
  store ptr %2, ptr %7, align 8, !tbaa !8
  %15 = load ptr, ptr %5, align 8
  %16 = load i32, ptr %6, align 4, !tbaa !45
  switch i32 %16, label %84 [
    i32 1, label %17
  ]

17:                                               ; preds = %3
  %18 = load ptr, ptr %7, align 8, !tbaa !8
  %19 = load i32, ptr %18, align 4, !tbaa !35
  %20 = call noundef signext i8 @_ZL9U_FAILURE10UErrorCode(i32 noundef %19)
  %21 = icmp ne i8 %20, 0
  br i1 %21, label %22, label %23

22:                                               ; preds = %17
  store i32 0, ptr %4, align 4
  br label %88

23:                                               ; preds = %17
  call void @llvm.lifetime.start.p0(i64 8, ptr %8) #10
  %24 = load ptr, ptr %15, align 8, !tbaa !9
  %25 = getelementptr inbounds ptr, ptr %24, i64 3
  %26 = load ptr, ptr %25, align 8
  %27 = call noundef ptr %26(ptr noundef nonnull align 8 dereferenceable(222) %15)
  store ptr %27, ptr %8, align 8, !tbaa !32
  %28 = load ptr, ptr %8, align 8, !tbaa !32
  %29 = icmp ne ptr %28, null
  br i1 %29, label %32, label %30

30:                                               ; preds = %23
  %31 = load ptr, ptr %7, align 8, !tbaa !8
  store i32 7, ptr %31, align 4, !tbaa !35
  store i32 0, ptr %4, align 4
  store i32 1, ptr %9, align 4
  br label %83

32:                                               ; preds = %23
  %33 = load ptr, ptr %8, align 8, !tbaa !32
  call void @_ZN6icu_778Calendar10setLenientEa(ptr noundef nonnull align 8 dereferenceable(192) %33, i8 noundef signext 1)
  call void @llvm.lifetime.start.p0(i64 4, ptr %10) #10
  %34 = load ptr, ptr %8, align 8, !tbaa !32
  %35 = load ptr, ptr %7, align 8, !tbaa !8
  %36 = call noundef i32 @_ZNK6icu_778Calendar3getE19UCalendarDateFieldsR10UErrorCode(ptr noundef nonnull align 8 dereferenceable(192) %34, i32 noundef 0, ptr noundef nonnull align 4 dereferenceable(4) %35)
  store i32 %36, ptr %10, align 4, !tbaa !31
  call void @llvm.lifetime.start.p0(i64 8, ptr %11) #10
  %37 = load ptr, ptr %8, align 8, !tbaa !32
  %38 = load ptr, ptr %7, align 8, !tbaa !8
  %39 = call noundef double @_ZNK6icu_778Calendar7getTimeER10UErrorCode(ptr noundef nonnull align 8 dereferenceable(192) %37, ptr noundef nonnull align 4 dereferenceable(4) %38)
  store double %39, ptr %11, align 8, !tbaa !34
  call void @llvm.lifetime.start.p0(i64 4, ptr %12) #10
  %40 = load i32, ptr getelementptr inbounds ([4 x i32], ptr getelementptr inbounds nuw ([24 x [4 x i32]], ptr @_ZL24kGregorianCalendarLimits, i64 0, i64 1), i64 0, i64 1), align 4, !tbaa !31
  store i32 %40, ptr %12, align 4, !tbaa !31
  call void @llvm.lifetime.start.p0(i64 4, ptr %13) #10
  %41 = load i32, ptr getelementptr inbounds ([4 x i32], ptr getelementptr inbounds nuw ([24 x [4 x i32]], ptr @_ZL24kGregorianCalendarLimits, i64 0, i64 1), i64 0, i64 2), align 8, !tbaa !31
  %42 = add nsw i32 %41, 1
  store i32 %42, ptr %13, align 4, !tbaa !31
  br label %43

43:                                               ; preds = %73, %32
  %44 = load i32, ptr %12, align 4, !tbaa !31
  %45 = add nsw i32 %44, 1
  %46 = load i32, ptr %13, align 4, !tbaa !31
  %47 = icmp slt i32 %45, %46
  br i1 %47, label %48, label %74

48:                                               ; preds = %43
  call void @llvm.lifetime.start.p0(i64 4, ptr %14) #10
  %49 = load i32, ptr %12, align 4, !tbaa !31
  %50 = load i32, ptr %13, align 4, !tbaa !31
  %51 = add nsw i32 %49, %50
  %52 = sdiv i32 %51, 2
  store i32 %52, ptr %14, align 4, !tbaa !31
  %53 = load ptr, ptr %8, align 8, !tbaa !32
  %54 = load i32, ptr %14, align 4, !tbaa !31
  call void @_ZN6icu_778Calendar3setE19UCalendarDateFieldsi(ptr noundef nonnull align 8 dereferenceable(192) %53, i32 noundef 1, i32 noundef %54)
  %55 = load ptr, ptr %8, align 8, !tbaa !32
  %56 = load ptr, ptr %7, align 8, !tbaa !8
  %57 = call noundef i32 @_ZNK6icu_778Calendar3getE19UCalendarDateFieldsR10UErrorCode(ptr noundef nonnull align 8 dereferenceable(192) %55, i32 noundef 1, ptr noundef nonnull align 4 dereferenceable(4) %56)
  %58 = load i32, ptr %14, align 4, !tbaa !31
  %59 = icmp eq i32 %57, %58
  br i1 %59, label %60, label %68

60:                                               ; preds = %48
  %61 = load ptr, ptr %8, align 8, !tbaa !32
  %62 = load ptr, ptr %7, align 8, !tbaa !8
  %63 = call noundef i32 @_ZNK6icu_778Calendar3getE19UCalendarDateFieldsR10UErrorCode(ptr noundef nonnull align 8 dereferenceable(192) %61, i32 noundef 0, ptr noundef nonnull align 4 dereferenceable(4) %62)
  %64 = load i32, ptr %10, align 4, !tbaa !31
  %65 = icmp eq i32 %63, %64
  br i1 %65, label %66, label %68

66:                                               ; preds = %60
  %67 = load i32, ptr %14, align 4, !tbaa !31
  store i32 %67, ptr %12, align 4, !tbaa !31
  br label %73

68:                                               ; preds = %60, %48
  %69 = load i32, ptr %14, align 4, !tbaa !31
  store i32 %69, ptr %13, align 4, !tbaa !31
  %70 = load ptr, ptr %8, align 8, !tbaa !32
  %71 = load double, ptr %11, align 8, !tbaa !34
  %72 = load ptr, ptr %7, align 8, !tbaa !8
  call void @_ZN6icu_778Calendar7setTimeEdR10UErrorCode(ptr noundef nonnull align 8 dereferenceable(192) %70, double noundef %71, ptr noundef nonnull align 4 dereferenceable(4) %72)
  br label %73

73:                                               ; preds = %68, %66
  call void @llvm.lifetime.end.p0(i64 4, ptr %14) #10
  br label %43, !llvm.loop !56

74:                                               ; preds = %43
  %75 = load ptr, ptr %8, align 8, !tbaa !32
  %76 = icmp eq ptr %75, null
  br i1 %76, label %81, label %77

77:                                               ; preds = %74
  %78 = load ptr, ptr %75, align 8, !tbaa !9
  %79 = getelementptr inbounds ptr, ptr %78, i64 1
  %80 = load ptr, ptr %79, align 8
  call void %80(ptr noundef nonnull align 8 dereferenceable(192) %75) #10
  br label %81

81:                                               ; preds = %77, %74
  %82 = load i32, ptr %12, align 4, !tbaa !31
  store i32 %82, ptr %4, align 4
  store i32 1, ptr %9, align 4
  call void @llvm.lifetime.end.p0(i64 4, ptr %13) #10
  call void @llvm.lifetime.end.p0(i64 4, ptr %12) #10
  call void @llvm.lifetime.end.p0(i64 8, ptr %11) #10
  call void @llvm.lifetime.end.p0(i64 4, ptr %10) #10
  br label %83

83:                                               ; preds = %81, %30
  call void @llvm.lifetime.end.p0(i64 8, ptr %8) #10
  br label %88

84:                                               ; preds = %3
  %85 = load i32, ptr %6, align 4, !tbaa !45
  %86 = load ptr, ptr %7, align 8, !tbaa !8
  %87 = call noundef i32 @_ZNK6icu_778Calendar16getActualMaximumE19UCalendarDateFieldsR10UErrorCode(ptr noundef nonnull align 8 dereferenceable(192) %15, i32 noundef %85, ptr noundef nonnull align 4 dereferenceable(4) %86)
  store i32 %87, ptr %4, align 4
  br label %88

88:                                               ; preds = %84, %83, %22
  %89 = load i32, ptr %4, align 4
  ret i32 %89
}