; Function Attrs: mustprogress uwtable
define noundef i32 @_ZNK6icu_7717GregorianCalendar16getActualMaximumE19UCalendarDateFieldsR10UErrorCode(ptr noundef nonnull align 8 dereferenceable(222) %0, i32 noundef %1, ptr noundef nonnull align 4 dereferenceable(4) %2) unnamed_addr #1 align 2 {
  %cond = icmp eq i32 %1, 1
  br i1 %cond, label %4, label %32

4:                                                ; preds = %3
  %5 = load i32, ptr %2, align 4, !tbaa !25
  %6 = icmp slt i32 %5, 1
  br i1 %6, label %7, label %34

7:                                                ; preds = %4
  %8 = load ptr, ptr %0, align 8, !tbaa !3
  %9 = getelementptr inbounds nuw i8, ptr %8, i64 24
  %10 = load ptr, ptr %9, align 8
  %11 = tail call noundef ptr %10(ptr noundef nonnull align 8 dereferenceable(222) %0)
  %.not38 = icmp eq ptr %11, null
  br i1 %.not38, label %12, label %13

12:                                               ; preds = %7
  store i32 7, ptr %2, align 4, !tbaa !25
  br label %34

13:                                               ; preds = %7
  tail call void @_ZN6icu_778Calendar10setLenientEa(ptr noundef nonnull align 8 dereferenceable(192) %11, i8 noundef signext 1)
  %14 = tail call noundef i32 @_ZNK6icu_778Calendar3getE19UCalendarDateFieldsR10UErrorCode(ptr noundef nonnull align 8 dereferenceable(192) %11, i32 noundef 0, ptr noundef nonnull align 4 dereferenceable(4) %2)
  %15 = tail call noundef double @_ZNK6icu_778Calendar15getTimeInMillisER10UErrorCode(ptr noundef nonnull align 8 dereferenceable(192) %11, ptr noundef nonnull align 4 dereferenceable(4) %2)
  br label %16

16:                                               ; preds = %13, %25
  %.03140 = phi i32 [ 140743, %13 ], [ %.132, %25 ]
  %.03339 = phi i32 [ 1, %13 ], [ %.134, %25 ]
  %17 = add nsw i32 %.03140, %.03339
  %18 = sdiv i32 %17, 2
  tail call void @_ZN6icu_778Calendar3setE19UCalendarDateFieldsi(ptr noundef nonnull align 8 dereferenceable(192) %11, i32 noundef 1, i32 noundef %18)
  %19 = tail call noundef i32 @_ZNK6icu_778Calendar3getE19UCalendarDateFieldsR10UErrorCode(ptr noundef nonnull align 8 dereferenceable(192) %11, i32 noundef 1, ptr noundef nonnull align 4 dereferenceable(4) %2)
  %20 = icmp eq i32 %19, %18
  br i1 %20, label %21, label %24

21:                                               ; preds = %16
  %22 = tail call noundef i32 @_ZNK6icu_778Calendar3getE19UCalendarDateFieldsR10UErrorCode(ptr noundef nonnull align 8 dereferenceable(192) %11, i32 noundef 0, ptr noundef nonnull align 4 dereferenceable(4) %2)
  %23 = icmp eq i32 %22, %14
  br i1 %23, label %25, label %24

24:                                               ; preds = %21, %16
  tail call void @_ZN6icu_778Calendar15setTimeInMillisEdR10UErrorCode(ptr noundef nonnull align 8 dereferenceable(192) %11, double noundef %15, ptr noundef nonnull align 4 dereferenceable(4) %2)
  br label %25

25:                                               ; preds = %21, %24
  %.134 = phi i32 [ %.03339, %24 ], [ %18, %21 ]
  %.132 = phi i32 [ %18, %24 ], [ %.03140, %21 ]
  %26 = add nsw i32 %.134, 1
  %27 = icmp slt i32 %26, %.132
  br i1 %27, label %16, label %28, !llvm.loop !37

28:                                               ; preds = %25
  %29 = load ptr, ptr %11, align 8, !tbaa !3
  %30 = getelementptr inbounds nuw i8, ptr %29, i64 8
  %31 = load ptr, ptr %30, align 8
  tail call void %31(ptr noundef nonnull align 8 dereferenceable(192) %11) #9
  br label %34

32:                                               ; preds = %3
  %33 = tail call noundef i32 @_ZNK6icu_778Calendar16getActualMaximumE19UCalendarDateFieldsR10UErrorCode(ptr noundef nonnull align 8 dereferenceable(192) %0, i32 noundef %1, ptr noundef nonnull align 4 dereferenceable(4) %2)
  br label %34

34:                                               ; preds = %12, %28, %4, %32
  %.0 = phi i32 [ %33, %32 ], [ 0, %4 ], [ %.134, %28 ], [ 0, %12 ]
  ret i32 %.0
}